target datalayout = "e-m:e-p270:32:32-p271:32:32-p272:64:64-i64:64-i128:128-f80:128-n8:16:32:64-S128"
target triple = "x86_64-pc-linux-gnu"

%struct.pmix_output_desc_t = type { i8, i8, i32, i8, i32, ptr, ptr, i32, ptr, i32, i8, i8, i8, i8, ptr, i32, i32 }

@prte_hwloc_base_output = external global i32, align 4
@pmix_output_info = external global [0 x %struct.pmix_output_desc_t], align 8
@.str.30 = private unnamed_addr constant [5 x i8] c"NONE\00", align 1
@.str.31 = private unnamed_addr constant [11 x i8] c"/proc/elog\00", align 1
@.str.32 = private unnamed_addr constant [2 x i8] c"r\00", align 1
@.str.33 = private unnamed_addr constant [5 x i8] c"Card\00", align 1
@.str.34 = private unnamed_addr constant [48 x i8] c"hwloc:base:check_coprocessor: on coprocessor %s\00", align 1

; Function Attrs: nounwind uwtable
define internal ptr @hwloc_getline(ptr noundef %0) #0 {
  %2 = alloca ptr, align 8
  %3 = alloca ptr, align 8
  %4 = alloca ptr, align 8
  %5 = alloca ptr, align 8
  %6 = alloca [1024 x i8], align 16
  %7 = alloca i32, align 4
  store ptr %0, ptr %3, align 8, !tbaa !119
  call void @llvm.lifetime.start.p0(i64 8, ptr %4) #10
  call void @llvm.lifetime.start.p0(i64 8, ptr %5) #10
  call void @llvm.lifetime.start.p0(i64 1024, ptr %6) #10
  %8 = getelementptr inbounds [1024 x i8], ptr %6, i64 0, i64 0
  %9 = load ptr, ptr %3, align 8, !tbaa !119
  %10 = call ptr @fgets(ptr noundef %8, i32 noundef 1024, ptr noundef %9)
  store ptr %10, ptr %4, align 8, !tbaa !26
  %11 = load ptr, ptr %4, align 8, !tbaa !26
  %12 = icmp ne ptr null, %11
  br i1 %12, label %13, label %21

13:                                               ; preds = %1
  %14 = getelementptr inbounds [1024 x i8], ptr %6, i64 0, i64 0
  %15 = call i64 @strlen(ptr noundef %14) #11
  %16 = sub i64 %15, 1
  %17 = getelementptr inbounds nuw [1024 x i8], ptr %6, i64 0, i64 %16
  store i8 0, ptr %17, align 1, !tbaa !89
  %18 = getelementptr inbounds [1024 x i8], ptr %6, i64 0, i64 0
  %19 = call noalias ptr @strdup(ptr noundef %18) #10
  store ptr %19, ptr %5, align 8, !tbaa !26
  %20 = load ptr, ptr %5, align 8, !tbaa !26
  store ptr %20, ptr %2, align 8
  store i32 1, ptr %7, align 4
  br label %22

21:                                               ; preds = %1
  store ptr null, ptr %2, align 8
  store i32 1, ptr %7, align 4
  br label %22

22:                                               ; preds = %21, %13
  call void @llvm.lifetime.end.p0(i64 1024, ptr %6) #10
  call void @llvm.lifetime.end.p0(i64 8, ptr %5) #10
  call void @llvm.lifetime.end.p0(i64 8, ptr %4) #10
  %23 = load ptr, ptr %2, align 8
  ret ptr %23
}

; Function Attrs: nounwind uwtable
define ptr @prte_hwloc_base_check_on_coprocessor() #0 {
  %1 = alloca ptr, align 8
  %2 = alloca ptr, align 8
  %3 = alloca ptr, align 8
  %4 = alloca ptr, align 8
  %5 = alloca ptr, align 8
  %6 = alloca ptr, align 8
  %7 = alloca i32, align 4
  call void @llvm.lifetime.start.p0(i64 8, ptr %2) #10
  call void @llvm.lifetime.start.p0(i64 8, ptr %3) #10
  call void @llvm.lifetime.start.p0(i64 8, ptr %4) #10
  call void @llvm.lifetime.start.p0(i64 8, ptr %5) #10
  call void @llvm.lifetime.start.p0(i64 8, ptr %6) #10
  store ptr null, ptr %6, align 8, !tbaa !26
  %8 = call noalias ptr @fopen(ptr noundef @.str.31, ptr noundef @.str.32)
  store ptr %8, ptr %2, align 8, !tbaa !119
  %9 = icmp eq ptr null, %8
  br i1 %9, label %10, label %11

10:                                               ; preds = %0
  store ptr null, ptr %1, align 8
  store i32 1, ptr %7, align 4
  br label %61

11:                                               ; preds = %0
  br label %12

12:                                               ; preds = %33, %26, %11
  %13 = load ptr, ptr %2, align 8, !tbaa !119
  %14 = call ptr @hwloc_getline(ptr noundef %13)
  store ptr %14, ptr %4, align 8, !tbaa !26
  %15 = icmp ne ptr null, %14
  br i1 %15, label %16, label %35

16:                                               ; preds = %12
  %17 = load ptr, ptr %4, align 8, !tbaa !26
  %18 = call ptr @strstr(ptr noundef %17, ptr noundef @.str.33) #11
  store ptr %18, ptr %3, align 8, !tbaa !26
  %19 = icmp ne ptr null, %18
  br i1 %19, label %20, label %33

20:                                               ; preds = %16
  %21 = load ptr, ptr %3, align 8, !tbaa !26
  %22 = getelementptr inbounds i8, ptr %21, i64 5
  store ptr %22, ptr %3, align 8, !tbaa !26
  %23 = load ptr, ptr %3, align 8, !tbaa !26
  %24 = call ptr @strchr(ptr noundef %23, i32 noundef 58) #11
  store ptr %24, ptr %5, align 8, !tbaa !26
  %25 = icmp eq ptr null, %24
  br i1 %25, label %26, label %28

26:                                               ; preds = %20
  %27 = load ptr, ptr %4, align 8, !tbaa !26
  call void @free(ptr noundef %27) #10
  br label %12, !llvm.loop !121

28:                                               ; preds = %20
  %29 = load ptr, ptr %5, align 8, !tbaa !26
  store i8 0, ptr %29, align 1, !tbaa !89
  %30 = load ptr, ptr %3, align 8, !tbaa !26
  %31 = call noalias ptr @strdup(ptr noundef %30) #10
  store ptr %31, ptr %6, align 8, !tbaa !26
  %32 = load ptr, ptr %4, align 8, !tbaa !26
  call void @free(ptr noundef %32) #10
  br label %35

33:                                               ; preds = %16
  %34 = load ptr, ptr %4, align 8, !tbaa !26
  call void @free(ptr noundef %34) #10
  br label %12, !llvm.loop !121

35:                                               ; preds = %28, %12
  %36 = load ptr, ptr %2, align 8, !tbaa !119
  %37 = call i32 @fclose(ptr noundef %36)
  %38 = load i32, ptr @prte_hwloc_base_output, align 4, !tbaa !19
  %39 = icmp sge i32 %38, 0
  br i1 %39, label %40, label %59

40:                                               ; preds = %35
  %41 = load i32, ptr @prte_hwloc_base_output, align 4, !tbaa !19
  %42 = icmp slt i32 %41, 64
  br i1 %42, label %43, label %59

43:                                               ; preds = %40
  %44 = load i32, ptr @prte_hwloc_base_output, align 4, !tbaa !19
  %45 = sext i32 %44 to i64
  %46 = getelementptr inbounds [0 x %struct.pmix_output_desc_t], ptr @pmix_output_info, i64 0, i64 %45
  %47 = getelementptr inbounds nuw %struct.pmix_output_desc_t, ptr %46, i32 0, i32 2
  %48 = load i32, ptr %47, align 4, !tbaa !24
  %49 = icmp sge i32 %48, 5
  br i1 %49, label %50, label %59

50:                                               ; preds = %43
  %51 = load i32, ptr @prte_hwloc_base_output, align 4, !tbaa !19
  %52 = load ptr, ptr %6, align 8, !tbaa !26
  %53 = icmp eq ptr null, %52
  br i1 %53, label %54, label %55

54:                                               ; preds = %50
  br label %57

55:                                               ; preds = %50
  %56 = load ptr, ptr %6, align 8, !tbaa !26
  br label %57

57:                                               ; preds = %55, %54
  %58 = phi ptr [ @.str.30, %54 ], [ %56, %55 ]
  call void (i32, ptr, ...) @pmix_output(i32 noundef %51, ptr noundef @.str.34, ptr noundef %58)
  br label %59

59:                                               ; preds = %57, %43, %40, %35
  %60 = load ptr, ptr %6, align 8, !tbaa !26
  store ptr %60, ptr %1, align 8
  store i32 1, ptr %7, align 4
  br label %61

61:                                               ; preds = %59, %10
  call void @llvm.lifetime.end.p0(i64 8, ptr %6) #10
  call void @llvm.lifetime.end.p0(i64 8, ptr %5) #10
  call void @llvm.lifetime.end.p0(i64 8, ptr %4) #10
  call void @llvm.lifetime.end.p0(i64 8, ptr %3) #10
  call void @llvm.lifetime.end.p0(i64 8, ptr %2) #10
  %62 = load ptr, ptr %1, align 8
  ret ptr %62
}