; Function Attrs: nounwind uwtable
define ptr @prte_hwloc_base_check_on_coprocessor() local_unnamed_addr #0 {
  %1 = alloca [1024 x i8], align 16
  %2 = tail call noalias ptr @fopen(ptr noundef nonnull @.str.31, ptr noundef nonnull @.str.32)
  %3 = icmp eq ptr %2, null
  br i1 %3, label %28, label %.preheader

.preheader:                                       ; preds = %0
  call void @llvm.lifetime.start.p0(i64 1024, ptr nonnull %1) #18
  %4 = call ptr @fgets(ptr noundef nonnull %1, i32 noundef 1024, ptr noundef nonnull %2)
  %.not.i26 = icmp eq ptr %4, null
  br i1 %.not.i26, label %hwloc_getline.exit.thread, label %hwloc_getline.exit

hwloc_getline.exit.thread:                        ; preds = %.backedge, %.preheader
  call void @llvm.lifetime.end.p0(i64 1024, ptr nonnull %1) #18
  br label %.loopexit

hwloc_getline.exit:                               ; preds = %.preheader, %.backedge
  %5 = call i64 @strlen(ptr noundef nonnull dereferenceable(1) %1) #19
  %6 = add i64 %5, -1
  %7 = getelementptr inbounds nuw [1024 x i8], ptr %1, i64 0, i64 %6
  store i8 0, ptr %7, align 1, !tbaa !54
  %8 = call noalias ptr @strdup(ptr noundef nonnull %1) #18
  call void @llvm.lifetime.end.p0(i64 1024, ptr nonnull %1) #18
  %.not = icmp eq ptr %8, null
  br i1 %.not, label %.loopexit, label %9

9:                                                ; preds = %hwloc_getline.exit
  %10 = call ptr @strstr(ptr noundef nonnull dereferenceable(1) %8, ptr noundef nonnull dereferenceable(1) @.str.33) #19
  %.not20 = icmp eq ptr %10, null
  br i1 %.not20, label %.backedge, label %11

11:                                               ; preds = %9
  %12 = getelementptr inbounds nuw i8, ptr %10, i64 5
  %13 = call ptr @strchr(ptr noundef nonnull dereferenceable(1) %12, i32 noundef 58) #19
  %14 = icmp eq ptr %13, null
  br i1 %14, label %.backedge, label %16

.backedge:                                        ; preds = %11, %9
  call void @free(ptr noundef nonnull %8) #18
  call void @llvm.lifetime.start.p0(i64 1024, ptr nonnull %1) #18
  %15 = call ptr @fgets(ptr noundef nonnull %1, i32 noundef 1024, ptr noundef nonnull %2)
  %.not.i = icmp eq ptr %15, null
  br i1 %.not.i, label %hwloc_getline.exit.thread, label %hwloc_getline.exit, !llvm.loop !100

16:                                               ; preds = %11
  store i8 0, ptr %13, align 1, !tbaa !54
  %17 = call noalias ptr @strdup(ptr noundef nonnull %12) #18
  call void @free(ptr noundef nonnull %8) #18
  br label %.loopexit

.loopexit:                                        ; preds = %hwloc_getline.exit, %hwloc_getline.exit.thread, %16
  %.0 = phi ptr [ %17, %16 ], [ null, %hwloc_getline.exit.thread ], [ null, %hwloc_getline.exit ]
  %18 = call i32 @fclose(ptr noundef nonnull %2)
  %19 = load i32, ptr @prte_hwloc_base_output, align 4, !tbaa !16
  %or.cond = icmp ult i32 %19, 64
  br i1 %or.cond, label %20, label %28

20:                                               ; preds = %.loopexit
  %21 = zext nneg i32 %19 to i64
  %22 = getelementptr inbounds nuw [0 x %struct.pmix_output_desc_t], ptr @pmix_output_info, i64 0, i64 %21, i32 2
  %23 = load i32, ptr %22, align 4, !tbaa !17
  %24 = icmp sgt i32 %23, 4
  br i1 %24, label %25, label %28

25:                                               ; preds = %20
  %26 = icmp eq ptr %.0, null
  %27 = select i1 %26, ptr @.str.30, ptr %.0
  call void (i32, ptr, ...) @pmix_output(i32 noundef %19, ptr noundef nonnull @.str.34, ptr noundef nonnull %27) #18
  br label %28

28:                                               ; preds = %.loopexit, %20, %25, %0
  %.015 = phi ptr [ null, %0 ], [ %.0, %25 ], [ %.0, %20 ], [ %.0, %.loopexit ]
  ret ptr %.015
}